; Function Attrs: nofree nounwind uwtable
define internal void @ssh_debug_printf(ptr noundef readonly captures(none) %0, ...) unnamed_addr #5 {
  %2 = alloca [1 x %struct.__va_list_tag], align 16
  %3 = load ptr, ptr @ssh_debug_file, align 8
  %.not = icmp eq ptr %3, null
  br i1 %.not, label %6, label %4

4:                                                ; preds = %1
  call void @llvm.va_start.p0(ptr nonnull %2)
  %5 = call i32 @vfprintf(ptr noundef nonnull %3, ptr noundef %0, ptr noundef nonnull %2) #21
  call void @llvm.va_end.p0(ptr nonnull %2)
  br label %6

6:                                                ; preds = %1, %4
  ret void
}